target datalayout = "e-m:e-p270:32:32-p271:32:32-p272:64:64-i64:64-i128:128-f80:128-n8:16:32:64-S128"
target triple = "x86_64-pc-linux-gnu"

%struct.pointf_s = type { double, double }
%struct.Agobj_s = type { %struct.Agtag_s, ptr }
%struct.Agtag_s = type { i32, i64 }
%struct.Agrec_s = type { ptr, ptr }
%struct.boxf = type { %struct.pointf_s, %struct.pointf_s }
%struct.Agraphinfo_t = type { %struct.Agrec_s, ptr, ptr, %struct.boxf, [4 x %struct.pointf_s], i8, i8, i8, i8, i32, double, double, i16, ptr, ptr, ptr, ptr, i32, ptr, ptr, ptr, ptr, i16, i16, i32, ptr, ptr, ptr, ptr, ptr, i32, ptr, ptr, %struct.nlist_t, ptr, ptr, i32, i32, i8, i8, i32, i32, i32, ptr, ptr, ptr, ptr, i8, i8, i8, i8, i8 }
%struct.nlist_t = type { ptr, i64 }

; Function Attrs: nounwind uwtable
define i32 @spline_edges1(ptr noundef %0, i32 noundef %1) #0 {
  %3 = alloca ptr, align 8
  %4 = alloca i32, align 4
  store ptr %0, ptr %3, align 8, !tbaa !123
  store i32 %1, ptr %4, align 4, !tbaa !45
  %5 = load ptr, ptr %3, align 8, !tbaa !123
  %6 = load i32, ptr %4, align 4, !tbaa !45
  %7 = call i32 @splineEdges(ptr noundef %5, ptr noundef @spline_edges_, i32 noundef %6)
  ret i32 %7
}

; Function Attrs: nounwind uwtable
define void @spline_edges0(ptr noundef %0, i1 noundef zeroext %1) #0 {
  %3 = alloca ptr, align 8
  %4 = alloca i8, align 1
  %5 = alloca i32, align 4
  %6 = alloca i32, align 4
  store ptr %0, ptr %3, align 8, !tbaa !123
  %7 = zext i1 %1 to i8
  store i8 %7, ptr %4, align 1, !tbaa !47
  call void @llvm.lifetime.start.p0(i64 4, ptr %5) #11
  %8 = load ptr, ptr %3, align 8, !tbaa !123
  %9 = getelementptr inbounds nuw %struct.Agobj_s, ptr %8, i32 0, i32 1
  %10 = load ptr, ptr %9, align 8, !tbaa !21
  %11 = getelementptr inbounds nuw %struct.Agraphinfo_t, ptr %10, i32 0, i32 12
  %12 = load i16, ptr %11, align 8, !tbaa !162
  %13 = zext i16 %12 to i32
  %14 = and i32 %13, 14
  store i32 %14, ptr %5, align 4, !tbaa !45
  %15 = load i8, ptr %4, align 1, !tbaa !47, !range !48, !noundef !49
  %16 = trunc i8 %15 to i1
  br i1 %16, label %17, label %20

17:                                               ; preds = %2
  %18 = load ptr, ptr %3, align 8, !tbaa !123
  %19 = call zeroext i1 @neato_set_aspect(ptr noundef %18)
  br label %20

20:                                               ; preds = %17, %2
  %21 = load i32, ptr %5, align 4, !tbaa !45
  %22 = icmp eq i32 %21, 0
  br i1 %22, label %23, label %24

23:                                               ; preds = %20
  store i32 1, ptr %6, align 4
  br label %28

24:                                               ; preds = %20
  %25 = load ptr, ptr %3, align 8, !tbaa !123
  %26 = load i32, ptr %5, align 4, !tbaa !45
  %27 = call i32 @spline_edges1(ptr noundef %25, i32 noundef %26)
  store i32 0, ptr %6, align 4
  br label %28

28:                                               ; preds = %24, %23
  call void @llvm.lifetime.end.p0(i64 4, ptr %5) #11
  %29 = load i32, ptr %6, align 4
  switch i32 %29, label %31 [
    i32 0, label %30
    i32 1, label %30
  ]

30:                                               ; preds = %28, %28
  ret void

31:                                               ; preds = %28
  unreachable
}