; Function Attrs: nounwind uwtable
define void @spline_edges0(ptr noundef %0, i1 noundef zeroext %1) local_unnamed_addr #3 {
  %3 = getelementptr inbounds nuw i8, ptr %0, i64 16
  %4 = load ptr, ptr %3, align 8, !tbaa !20
  %5 = getelementptr inbounds nuw i8, ptr %4, i64 152
  %6 = load i16, ptr %5, align 8, !tbaa !133
  %7 = and i16 %6, 14
  %8 = zext nneg i16 %7 to i32
  br i1 %1, label %9, label %11

9:                                                ; preds = %2
  %10 = tail call zeroext i1 @neato_set_aspect(ptr noundef nonnull %0)
  br label %11

11:                                               ; preds = %9, %2
  %12 = icmp eq i16 %7, 0
  br i1 %12, label %15, label %13

13:                                               ; preds = %11
  %14 = tail call range(i32 0, 2) i32 @splineEdges(ptr noundef nonnull %0, ptr noundef nonnull @spline_edges_, i32 noundef %8)
  br label %15

15:                                               ; preds = %11, %13
  ret void
}